; Function Attrs: nounwind uwtable
define internal void @cast_fault_to_int(ptr nocapture readnone %0, ptr nocapture noundef %1, ptr noundef %2) #0 {
  %4 = tail call noundef ptr @vmem_alloc(ptr noundef nonnull @expr_arena, i64 noundef 56) #10
  tail call void @llvm.memcpy.p0.p0.i64(ptr noundef nonnull align 8 dereferenceable(56) %4, ptr noundef nonnull align 8 dereferenceable(56) %1, i64 56, i1 false)
  %5 = getelementptr inbounds i8, ptr %1, i64 16
  %6 = load i16, ptr %5, align 8
  %7 = and i16 %6, -256
  %8 = or disjoint i16 %7, 9
  store i16 %8, ptr %5, align 8
  %9 = getelementptr inbounds i8, ptr %1, i64 24
  store i8 11, ptr %9, align 8
  %10 = load ptr, ptr @expr_arena, align 8
  %11 = ptrtoint ptr %4 to i64
  %12 = ptrtoint ptr %10 to i64
  %13 = sub i64 %11, %12
  %14 = sdiv exact i64 %13, 56
  %15 = trunc i64 %14 to i32
  %16 = getelementptr inbounds i8, ptr %1, i64 28
  store i32 %15, ptr %16, align 4
  %17 = getelementptr inbounds i8, ptr %1, i64 32
  store i32 0, ptr %17, align 8
  store ptr %2, ptr %1, align 8
  ret void
}